target datalayout = "e-m:e-p270:32:32-p271:32:32-p272:64:64-i64:64-i128:128-f80:128-n8:16:32:64-S128"
target triple = "x86_64-unknown-linux-gnu"

%"class.hermes::irgen::ESTreeIRGen" = type { ptr, %"class.hermes::IRBuilder", %"class.hermes::IRInstrument", ptr, ptr, ptr, ptr, %"class.hermes::ScopedHashTable", %"class.std::shared_ptr", %"class.hermes::Identifier", %"class.hermes::Identifier", %"class.hermes::Identifier", ptr, ptr, %"class.llvh::DenseMap.0" }
%"class.hermes::IRBuilder" = type { ptr, %"class.llvh::ilist_iterator", ptr, %"class.llvh::SMLoc", ptr }
%"class.llvh::ilist_iterator" = type { ptr }
%"class.llvh::SMLoc" = type { ptr }
%"class.hermes::IRInstrument" = type { i8 }
%"class.hermes::ScopedHashTable" = type { %"class.llvh::DenseMap", ptr }
%"class.llvh::DenseMap" = type <{ ptr, i32, i32, i32, [4 x i8] }>
%"class.std::shared_ptr" = type { %"class.std::__shared_ptr" }
%"class.std::__shared_ptr" = type { ptr, %"class.std::__shared_count" }
%"class.std::__shared_count" = type { ptr }
%"class.hermes::Identifier" = type { ptr }
%"class.llvh::DenseMap.0" = type <{ ptr, i32, i32, i32, [4 x i8] }>
%"class.hermes::irgen::FunctionContext" = type { ptr, ptr, ptr, %"class.hermes::IRBuilder::SaveRestore", %"class.llvh::SmallVector.164", ptr, ptr, ptr, ptr, ptr, %"class.hermes::InternalIdentifierMaker", ptr, ptr, ptr, ptr, %"class.hermes::irgen::EnterBlockScope", %"class.std::optional", %"class.std::optional", %"class.std::optional" }
%"class.hermes::IRBuilder::SaveRestore" = type { ptr, ptr, %"class.llvh::SMLoc" }
%"class.llvh::SmallVector.164" = type { %"class.llvh::SmallVectorImpl.165", %"struct.llvh::SmallVectorStorage.168" }
%"class.llvh::SmallVectorImpl.165" = type { %"class.llvh::SmallVectorTemplateBase.166" }
%"class.llvh::SmallVectorTemplateBase.166" = type { %"class.llvh::SmallVectorTemplateCommon.167" }
%"class.llvh::SmallVectorTemplateCommon.167" = type { %"class.llvh::SmallVectorBase" }
%"class.llvh::SmallVectorBase" = type { ptr, i32, i32 }
%"struct.llvh::SmallVectorStorage.168" = type { [2 x %"struct.llvh::AlignedCharArrayUnion.169"] }
%"struct.llvh::AlignedCharArrayUnion.169" = type { %"struct.llvh::AlignedCharArray.170" }
%"struct.llvh::AlignedCharArray.170" = type { [24 x i8] }
%"class.hermes::InternalIdentifierMaker" = type { ptr, i64 }
%"class.hermes::irgen::EnterBlockScope" = type { ptr, ptr, ptr, ptr, %"class.hermes::ScopedHashTableScope" }
%"class.hermes::ScopedHashTableScope" = type { i32, ptr, ptr, ptr }
%"class.std::optional" = type { %"struct.std::_Optional_base" }
%"struct.std::_Optional_base" = type { %"struct.std::_Optional_payload" }
%"struct.std::_Optional_payload" = type { %"struct.std::_Optional_payload.base", [7 x i8] }
%"struct.std::_Optional_payload.base" = type { %"struct.std::_Optional_payload_base.base" }
%"struct.std::_Optional_payload_base.base" = type <{ %"union.std::_Optional_payload_base<hermes::irgen::EnterBlockScope>::_Storage", i8 }>
%"union.std::_Optional_payload_base<hermes::irgen::EnterBlockScope>::_Storage" = type { %"class.hermes::irgen::EnterBlockScope" }
%"class.hermes::IRBuilder::ScopedLocationChange" = type { ptr, %"class.llvh::SMLoc" }
%"struct.llvh::SaveAndRestore" = type { ptr, ptr }
%"class.hermes::irgen::SurroundingTry" = type { ptr, ptr, ptr, %"class.llvh::SMLoc", %"class.std::function" }
%"class.std::function" = type { %"class.std::_Function_base", ptr }
%"class.std::_Function_base" = type { %"union.std::_Any_data", ptr }
%"union.std::_Any_data" = type { %"union.std::_Nocopy_types" }
%"union.std::_Nocopy_types" = type { { i64, i64 } }

; Function Attrs: mustprogress nounwind uwtable
define linkonce_odr noundef zeroext i1 @_ZNKSt14_Function_base8_M_emptyEv(ptr noundef nonnull align 8 dereferenceable(24) %this) #0 comdat align 2 {
entry:
  %this.addr = alloca ptr, align 8
  store ptr %this, ptr %this.addr, align 8
  %this1 = load ptr, ptr %this.addr, align 8
  %_M_manager = getelementptr inbounds %"class.std::_Function_base", ptr %this1, i32 0, i32 1
  %0 = load ptr, ptr %_M_manager, align 8
  %tobool = icmp ne ptr %0, null
  %lnot = xor i1 %tobool, true
  ret i1 %lnot
}

; Function Attrs: mustprogress nounwind uwtable
define linkonce_odr hidden void @_ZN6hermes9IRBuilder11setLocationEN4llvh5SMLocE(ptr noundef nonnull align 8 dereferenceable(40) %this, ptr %loc.coerce) #0 comdat align 2 {
entry:
  %loc = alloca %"class.llvh::SMLoc", align 8
  %this.addr = alloca ptr, align 8
  %coerce.dive = getelementptr inbounds %"class.llvh::SMLoc", ptr %loc, i32 0, i32 0
  store ptr %loc.coerce, ptr %coerce.dive, align 8
  store ptr %this, ptr %this.addr, align 8
  %this1 = load ptr, ptr %this.addr, align 8
  %Location = getelementptr inbounds %"class.hermes::IRBuilder", ptr %this1, i32 0, i32 3
  call void @llvm.memcpy.p0.p0.i64(ptr align 8 %Location, ptr align 8 %loc, i64 8, i1 false)
  ret void
}

; Function Attrs: mustprogress nounwind uwtable
define linkonce_odr hidden ptr @_ZNK6hermes9IRBuilder11getLocationEv(ptr noundef nonnull align 8 dereferenceable(40) %this) #0 comdat align 2 {
entry:
  %retval = alloca %"class.llvh::SMLoc", align 8
  %this.addr = alloca ptr, align 8
  store ptr %this, ptr %this.addr, align 8
  %this1 = load ptr, ptr %this.addr, align 8
  %Location = getelementptr inbounds %"class.hermes::IRBuilder", ptr %this1, i32 0, i32 3
  call void @llvm.memcpy.p0.p0.i64(ptr align 8 %retval, ptr align 8 %Location, i64 8, i1 false)
  %coerce.dive = getelementptr inbounds %"class.llvh::SMLoc", ptr %retval, i32 0, i32 0
  %0 = load ptr, ptr %coerce.dive, align 8
  ret ptr %0
}

; Function Attrs: mustprogress nounwind uwtable
define linkonce_odr hidden void @_ZN4llvh14SaveAndRestoreIPN6hermes5irgen14SurroundingTryEED2Ev(ptr noundef nonnull align 8 dereferenceable(16) %this) unnamed_addr #0 comdat align 2 {
entry:
  %this.addr = alloca ptr, align 8
  store ptr %this, ptr %this.addr, align 8
  %this1 = load ptr, ptr %this.addr, align 8
  %OldValue = getelementptr inbounds %"struct.llvh::SaveAndRestore", ptr %this1, i32 0, i32 1
  %0 = load ptr, ptr %OldValue, align 8
  %X = getelementptr inbounds %"struct.llvh::SaveAndRestore", ptr %this1, i32 0, i32 0
  %1 = load ptr, ptr %X, align 8
  store ptr %0, ptr %1, align 8
  ret void
}

; Function Attrs: mustprogress nounwind uwtable
define linkonce_odr hidden void @_ZNKSt8functionIFvPN6hermes6ESTree4NodeENS0_5irgen17ControlFlowChangeEPNS0_10BasicBlockEEEclES3_S5_S7_(ptr noundef nonnull align 8 dereferenceable(32) %this, ptr noundef %__args, i32 noundef %__args1, ptr noundef %__args3) #0 comdat align 2 {
entry:
  %this.addr = alloca ptr, align 8
  %__args.addr = alloca ptr, align 8
  %__args.addr2 = alloca i32, align 4
  %__args.addr4 = alloca ptr, align 8
  store ptr %this, ptr %this.addr, align 8
  store ptr %__args, ptr %__args.addr, align 8
  store i32 %__args1, ptr %__args.addr2, align 4
  store ptr %__args3, ptr %__args.addr4, align 8
  %this5 = load ptr, ptr %this.addr, align 8
  %call = call noundef zeroext i1 @_ZNKSt14_Function_base8_M_emptyEv(ptr noundef nonnull align 8 dereferenceable(24) %this5)
  br i1 %call, label %if.then, label %if.end

if.then:                                          ; preds = %entry
  call void @_ZSt25__throw_bad_function_callv() #10
  unreachable

if.end:                                           ; preds = %entry
  %_M_invoker = getelementptr inbounds %"class.std::function", ptr %this5, i32 0, i32 1
  %0 = load ptr, ptr %_M_invoker, align 8
  %_M_functor = getelementptr inbounds %"class.std::_Function_base", ptr %this5, i32 0, i32 0
  call void %0(ptr noundef nonnull align 8 dereferenceable(16) %_M_functor, ptr noundef nonnull align 8 dereferenceable(8) %__args.addr, ptr noundef nonnull align 4 dereferenceable(4) %__args.addr2, ptr noundef nonnull align 8 dereferenceable(8) %__args.addr4)
  ret void
}

; Function Attrs: mustprogress nounwind uwtable
define linkonce_odr hidden void @_ZN4llvh14SaveAndRestoreIPN6hermes5irgen14SurroundingTryEEC2ERS4_RKS4_(ptr noundef nonnull align 8 dereferenceable(16) %this, ptr noundef nonnull align 8 dereferenceable(8) %X, ptr noundef nonnull align 8 dereferenceable(8) %NewValue) unnamed_addr #0 comdat align 2 {
entry:
  %this.addr = alloca ptr, align 8
  %X.addr = alloca ptr, align 8
  %NewValue.addr = alloca ptr, align 8
  store ptr %this, ptr %this.addr, align 8
  store ptr %X, ptr %X.addr, align 8
  store ptr %NewValue, ptr %NewValue.addr, align 8
  %this1 = load ptr, ptr %this.addr, align 8
  %X2 = getelementptr inbounds %"struct.llvh::SaveAndRestore", ptr %this1, i32 0, i32 0
  %0 = load ptr, ptr %X.addr, align 8
  store ptr %0, ptr %X2, align 8
  %OldValue = getelementptr inbounds %"struct.llvh::SaveAndRestore", ptr %this1, i32 0, i32 1
  %1 = load ptr, ptr %X.addr, align 8
  %2 = load ptr, ptr %1, align 8
  store ptr %2, ptr %OldValue, align 8
  %3 = load ptr, ptr %NewValue.addr, align 8
  %4 = load ptr, ptr %3, align 8
  %5 = load ptr, ptr %X.addr, align 8
  store ptr %4, ptr %5, align 8
  ret void
}

; Function Attrs: mustprogress nounwind uwtable
define linkonce_odr hidden noundef zeroext i1 @_ZNKSt8functionIFvPN6hermes6ESTree4NodeENS0_5irgen17ControlFlowChangeEPNS0_10BasicBlockEEEcvbEv(ptr noundef nonnull align 8 dereferenceable(32) %this) #0 comdat align 2 {
entry:
  %this.addr = alloca ptr, align 8
  store ptr %this, ptr %this.addr, align 8
  %this1 = load ptr, ptr %this.addr, align 8
  %call = call noundef zeroext i1 @_ZNKSt14_Function_base8_M_emptyEv(ptr noundef nonnull align 8 dereferenceable(24) %this1)
  %lnot = xor i1 %call, true
  ret i1 %lnot
}

; Function Attrs: mustprogress nounwind uwtable
define linkonce_odr hidden void @_ZN6hermes9IRBuilder20ScopedLocationChangeD2Ev(ptr noundef nonnull align 8 dereferenceable(16) %this) unnamed_addr #0 comdat align 2 {
entry:
  %this.addr = alloca ptr, align 8
  %agg.tmp = alloca %"class.llvh::SMLoc", align 8
  store ptr %this, ptr %this.addr, align 8
  %this1 = load ptr, ptr %this.addr, align 8
  %builder_ = getelementptr inbounds %"class.hermes::IRBuilder::ScopedLocationChange", ptr %this1, i32 0, i32 0
  %0 = load ptr, ptr %builder_, align 8
  %oldLocation_ = getelementptr inbounds %"class.hermes::IRBuilder::ScopedLocationChange", ptr %this1, i32 0, i32 1
  call void @llvm.memcpy.p0.p0.i64(ptr align 8 %agg.tmp, ptr align 8 %oldLocation_, i64 8, i1 false)
  %coerce.dive = getelementptr inbounds %"class.llvh::SMLoc", ptr %agg.tmp, i32 0, i32 0
  %1 = load ptr, ptr %coerce.dive, align 8
  call void @_ZN6hermes9IRBuilder11setLocationEN4llvh5SMLocE(ptr noundef nonnull align 8 dereferenceable(40) %0, ptr %1)
  ret void
}

; Function Attrs: mustprogress nounwind uwtable
define linkonce_odr hidden void @_ZN6hermes9IRBuilder20ScopedLocationChangeC2ERS0_N4llvh5SMLocE(ptr noundef nonnull align 8 dereferenceable(16) %this, ptr noundef nonnull align 8 dereferenceable(40) %builder, ptr %location.coerce) unnamed_addr #0 comdat align 2 {
entry:
  %location = alloca %"class.llvh::SMLoc", align 8
  %this.addr = alloca ptr, align 8
  %builder.addr = alloca ptr, align 8
  %agg.tmp = alloca %"class.llvh::SMLoc", align 8
  %coerce.dive = getelementptr inbounds %"class.llvh::SMLoc", ptr %location, i32 0, i32 0
  store ptr %location.coerce, ptr %coerce.dive, align 8
  store ptr %this, ptr %this.addr, align 8
  store ptr %builder, ptr %builder.addr, align 8
  %this1 = load ptr, ptr %this.addr, align 8
  %builder_ = getelementptr inbounds %"class.hermes::IRBuilder::ScopedLocationChange", ptr %this1, i32 0, i32 0
  %0 = load ptr, ptr %builder.addr, align 8
  store ptr %0, ptr %builder_, align 8
  %oldLocation_ = getelementptr inbounds %"class.hermes::IRBuilder::ScopedLocationChange", ptr %this1, i32 0, i32 1
  %1 = load ptr, ptr %builder.addr, align 8
  %call = call ptr @_ZNK6hermes9IRBuilder11getLocationEv(ptr noundef nonnull align 8 dereferenceable(40) %1)
  %coerce.dive2 = getelementptr inbounds %"class.llvh::SMLoc", ptr %oldLocation_, i32 0, i32 0
  store ptr %call, ptr %coerce.dive2, align 8
  %builder_3 = getelementptr inbounds %"class.hermes::IRBuilder::ScopedLocationChange", ptr %this1, i32 0, i32 0
  %2 = load ptr, ptr %builder_3, align 8
  call void @llvm.memcpy.p0.p0.i64(ptr align 8 %agg.tmp, ptr align 8 %location, i64 8, i1 false)
  %coerce.dive4 = getelementptr inbounds %"class.llvh::SMLoc", ptr %agg.tmp, i32 0, i32 0
  %3 = load ptr, ptr %coerce.dive4, align 8
  call void @_ZN6hermes9IRBuilder11setLocationEN4llvh5SMLocE(ptr noundef nonnull align 8 dereferenceable(40) %2, ptr %3)
  ret void
}

; Function Attrs: mustprogress nounwind uwtable
define linkonce_odr hidden noundef zeroext i1 @_ZNK4llvh5SMLoc7isValidEv(ptr noundef nonnull align 8 dereferenceable(8) %this) #0 comdat align 2 {
entry:
  %this.addr = alloca ptr, align 8
  store ptr %this, ptr %this.addr, align 8
  %this1 = load ptr, ptr %this.addr, align 8
  %Ptr = getelementptr inbounds %"class.llvh::SMLoc", ptr %this1, i32 0, i32 0
  %0 = load ptr, ptr %Ptr, align 8
  %cmp = icmp ne ptr %0, null
  ret i1 %cmp
}

; Function Attrs: mustprogress nounwind uwtable
define linkonce_odr hidden noundef ptr @_ZN6hermes5irgen11ESTreeIRGen11curFunctionEv(ptr noundef nonnull align 8 dereferenceable(200) %this) #0 comdat align 2 {
entry:
  %this.addr = alloca ptr, align 8
  store ptr %this, ptr %this.addr, align 8
  %this1 = load ptr, ptr %this.addr, align 8
  %functionContext_ = getelementptr inbounds %"class.hermes::irgen::ESTreeIRGen", ptr %this1, i32 0, i32 6
  %0 = load ptr, ptr %functionContext_, align 8
  ret ptr %0
}

; Function Attrs: mustprogress nounwind uwtable
define hidden void @_ZN6hermes5irgen11ESTreeIRGen29genFinallyBeforeControlChangeEPNS0_14SurroundingTryES3_NS0_17ControlFlowChangeEPNS_10BasicBlockE(ptr noundef nonnull align 8 dereferenceable(200) %this, ptr noundef %sourceTry, ptr noundef %targetTry, i32 noundef %cfc, ptr noundef %continueTarget) #0 align 2 {
entry:
  %this.addr = alloca ptr, align 8
  %sourceTry.addr = alloca ptr, align 8
  %targetTry.addr = alloca ptr, align 8
  %cfc.addr = alloca i32, align 4
  %continueTarget.addr = alloca ptr, align 8
  %tryEndBlock = alloca ptr, align 8
  %slc = alloca %"class.hermes::IRBuilder::ScopedLocationChange", align 8
  %agg.tmp = alloca %"class.llvh::SMLoc", align 8
  %sr = alloca %"struct.llvh::SaveAndRestore", align 8
  store ptr %this, ptr %this.addr, align 8
  store ptr %sourceTry, ptr %sourceTry.addr, align 8
  store ptr %targetTry, ptr %targetTry.addr, align 8
  store i32 %cfc, ptr %cfc.addr, align 4
  store ptr %continueTarget, ptr %continueTarget.addr, align 8
  %this1 = load ptr, ptr %this.addr, align 8
  br label %for.cond

for.cond:                                         ; preds = %for.inc, %entry
  %0 = load ptr, ptr %sourceTry.addr, align 8
  %1 = load ptr, ptr %targetTry.addr, align 8
  %cmp = icmp ne ptr %0, %1
  br i1 %cmp, label %for.body, label %for.end

for.body:                                         ; preds = %for.cond
  %Builder = getelementptr inbounds %"class.hermes::irgen::ESTreeIRGen", ptr %this1, i32 0, i32 1
  %call = call noundef ptr @_ZN6hermes5irgen11ESTreeIRGen11curFunctionEv(ptr noundef nonnull align 8 dereferenceable(200) %this1)
  %function = getelementptr inbounds %"class.hermes::irgen::FunctionContext", ptr %call, i32 0, i32 5
  %2 = load ptr, ptr %function, align 8
  %call2 = call noundef ptr @_ZN6hermes9IRBuilder16createBasicBlockEPNS_8FunctionE(ptr noundef nonnull align 8 dereferenceable(40) %Builder, ptr noundef %2)
  store ptr %call2, ptr %tryEndBlock, align 8
  %Builder3 = getelementptr inbounds %"class.hermes::irgen::ESTreeIRGen", ptr %this1, i32 0, i32 1
  %3 = load ptr, ptr %tryEndBlock, align 8
  %call4 = call noundef ptr @_ZN6hermes9IRBuilder16createBranchInstEPNS_10BasicBlockE(ptr noundef nonnull align 8 dereferenceable(40) %Builder3, ptr noundef %3)
  %Builder5 = getelementptr inbounds %"class.hermes::irgen::ESTreeIRGen", ptr %this1, i32 0, i32 1
  %4 = load ptr, ptr %tryEndBlock, align 8
  call void @_ZN6hermes9IRBuilder17setInsertionBlockEPNS_10BasicBlockE(ptr noundef nonnull align 8 dereferenceable(40) %Builder5, ptr noundef %4)
  %5 = load ptr, ptr %sourceTry.addr, align 8
  %tryEndLoc = getelementptr inbounds %"class.hermes::irgen::SurroundingTry", ptr %5, i32 0, i32 3
  %call6 = call noundef zeroext i1 @_ZNK4llvh5SMLoc7isValidEv(ptr noundef nonnull align 8 dereferenceable(8) %tryEndLoc)
  br i1 %call6, label %if.then, label %if.else

if.then:                                          ; preds = %for.body
  %Builder7 = getelementptr inbounds %"class.hermes::irgen::ESTreeIRGen", ptr %this1, i32 0, i32 1
  %6 = load ptr, ptr %sourceTry.addr, align 8
  %tryEndLoc8 = getelementptr inbounds %"class.hermes::irgen::SurroundingTry", ptr %6, i32 0, i32 3
  call void @llvm.memcpy.p0.p0.i64(ptr align 8 %agg.tmp, ptr align 8 %tryEndLoc8, i64 8, i1 false)
  %coerce.dive = getelementptr inbounds %"class.llvh::SMLoc", ptr %agg.tmp, i32 0, i32 0
  %7 = load ptr, ptr %coerce.dive, align 8
  call void @_ZN6hermes9IRBuilder20ScopedLocationChangeC2ERS0_N4llvh5SMLocE(ptr noundef nonnull align 8 dereferenceable(16) %slc, ptr noundef nonnull align 8 dereferenceable(40) %Builder7, ptr %7)
  %Builder9 = getelementptr inbounds %"class.hermes::irgen::ESTreeIRGen", ptr %this1, i32 0, i32 1
  %call10 = call noundef ptr @_ZN6hermes9IRBuilder16createTryEndInstEv(ptr noundef nonnull align 8 dereferenceable(40) %Builder9)
  call void @_ZN6hermes9IRBuilder20ScopedLocationChangeD2Ev(ptr noundef nonnull align 8 dereferenceable(16) %slc) #9
  br label %if.end

if.else:                                          ; preds = %for.body
  %Builder11 = getelementptr inbounds %"class.hermes::irgen::ESTreeIRGen", ptr %this1, i32 0, i32 1
  %call12 = call noundef ptr @_ZN6hermes9IRBuilder16createTryEndInstEv(ptr noundef nonnull align 8 dereferenceable(40) %Builder11)
  br label %if.end

if.end:                                           ; preds = %if.else, %if.then
  %8 = load ptr, ptr %sourceTry.addr, align 8
  %genFinalizer = getelementptr inbounds %"class.hermes::irgen::SurroundingTry", ptr %8, i32 0, i32 4
  %call13 = call noundef zeroext i1 @_ZNKSt8functionIFvPN6hermes6ESTree4NodeENS0_5irgen17ControlFlowChangeEPNS0_10BasicBlockEEEcvbEv(ptr noundef nonnull align 8 dereferenceable(32) %genFinalizer) #9
  br i1 %call13, label %if.then14, label %if.end17

if.then14:                                        ; preds = %if.end
  %call15 = call noundef ptr @_ZN6hermes5irgen11ESTreeIRGen11curFunctionEv(ptr noundef nonnull align 8 dereferenceable(200) %this1)
  %surroundingTry = getelementptr inbounds %"class.hermes::irgen::FunctionContext", ptr %call15, i32 0, i32 6
  %9 = load ptr, ptr %sourceTry.addr, align 8
  %outer = getelementptr inbounds %"class.hermes::irgen::SurroundingTry", ptr %9, i32 0, i32 1
  call void @_ZN4llvh14SaveAndRestoreIPN6hermes5irgen14SurroundingTryEEC2ERS4_RKS4_(ptr noundef nonnull align 8 dereferenceable(16) %sr, ptr noundef nonnull align 8 dereferenceable(8) %surroundingTry, ptr noundef nonnull align 8 dereferenceable(8) %outer)
  %10 = load ptr, ptr %sourceTry.addr, align 8
  %genFinalizer16 = getelementptr inbounds %"class.hermes::irgen::SurroundingTry", ptr %10, i32 0, i32 4
  %11 = load ptr, ptr %sourceTry.addr, align 8
  %node = getelementptr inbounds %"class.hermes::irgen::SurroundingTry", ptr %11, i32 0, i32 2
  %12 = load ptr, ptr %node, align 8
  %13 = load i32, ptr %cfc.addr, align 4
  %14 = load ptr, ptr %continueTarget.addr, align 8
  call void @_ZNKSt8functionIFvPN6hermes6ESTree4NodeENS0_5irgen17ControlFlowChangeEPNS0_10BasicBlockEEEclES3_S5_S7_(ptr noundef nonnull align 8 dereferenceable(32) %genFinalizer16, ptr noundef %12, i32 noundef %13, ptr noundef %14)
  call void @_ZN4llvh14SaveAndRestoreIPN6hermes5irgen14SurroundingTryEED2Ev(ptr noundef nonnull align 8 dereferenceable(16) %sr) #9
  br label %if.end17

if.end17:                                         ; preds = %if.then14, %if.end
  br label %for.inc

for.inc:                                          ; preds = %if.end17
  %15 = load ptr, ptr %sourceTry.addr, align 8
  %outer18 = getelementptr inbounds %"class.hermes::irgen::SurroundingTry", ptr %15, i32 0, i32 1
  %16 = load ptr, ptr %outer18, align 8
  store ptr %16, ptr %sourceTry.addr, align 8
  br label %for.cond, !llvm.loop !4

for.end:                                          ; preds = %for.cond
  ret void
}