; Function Attrs: mustprogress nounwind uwtable
define hidden void @_ZN6hermes5irgen11ESTreeIRGen29genFinallyBeforeControlChangeEPNS0_14SurroundingTryES3_NS0_17ControlFlowChangeEPNS_10BasicBlockE(ptr noundef nonnull align 8 dereferenceable(200) %this, ptr noundef %sourceTry, ptr noundef readnone %targetTry, i32 noundef %cfc, ptr noundef %continueTarget) local_unnamed_addr #0 align 2 {
entry:
  %__args.addr.i = alloca ptr, align 8
  %__args.addr2.i = alloca i32, align 4
  %__args.addr4.i = alloca ptr, align 8
  %cmp.not15 = icmp eq ptr %sourceTry, %targetTry
  br i1 %cmp.not15, label %for.end, label %for.body.lr.ph

for.body.lr.ph:                                   ; preds = %entry
  %Builder = getelementptr inbounds nuw i8, ptr %this, i64 8
  %functionContext_.i = getelementptr inbounds nuw i8, ptr %this, i64 80
  %Location.i.i = getelementptr inbounds nuw i8, ptr %this, i64 32
  br label %for.body

for.body:                                         ; preds = %for.body.lr.ph, %for.inc
  %sourceTry.addr.016 = phi ptr [ %sourceTry, %for.body.lr.ph ], [ %10, %for.inc ]
  %0 = load ptr, ptr %functionContext_.i, align 8
  %function = getelementptr inbounds nuw i8, ptr %0, i64 112
  %1 = load ptr, ptr %function, align 8
  %call2 = call noundef ptr @_ZN6hermes9IRBuilder16createBasicBlockEPNS_8FunctionE(ptr noundef nonnull align 8 dereferenceable(40) %Builder, ptr noundef %1) #11
  %call4 = call noundef ptr @_ZN6hermes9IRBuilder16createBranchInstEPNS_10BasicBlockE(ptr noundef nonnull align 8 dereferenceable(40) %Builder, ptr noundef %call2) #11
  call void @_ZN6hermes9IRBuilder17setInsertionBlockEPNS_10BasicBlockE(ptr noundef nonnull align 8 dereferenceable(40) %Builder, ptr noundef %call2) #11
  %tryEndLoc = getelementptr inbounds nuw i8, ptr %sourceTry.addr.016, i64 24
  %2 = load ptr, ptr %tryEndLoc, align 8
  %cmp.i.not = icmp eq ptr %2, null
  br i1 %cmp.i.not, label %if.else, label %if.then

if.then:                                          ; preds = %for.body
  %retval.sroa.0.0.copyload.i.i = load ptr, ptr %Location.i.i, align 8
  store ptr %2, ptr %Location.i.i, align 8
  %call10 = call noundef ptr @_ZN6hermes9IRBuilder16createTryEndInstEv(ptr noundef nonnull align 8 dereferenceable(40) %Builder) #11
  store ptr %retval.sroa.0.0.copyload.i.i, ptr %Location.i.i, align 8
  br label %if.end

if.else:                                          ; preds = %for.body
  %call12 = call noundef ptr @_ZN6hermes9IRBuilder16createTryEndInstEv(ptr noundef nonnull align 8 dereferenceable(40) %Builder) #11
  br label %if.end

if.end:                                           ; preds = %if.else, %if.then
  %genFinalizer = getelementptr inbounds nuw i8, ptr %sourceTry.addr.016, i64 32
  %_M_manager.i.i = getelementptr inbounds nuw i8, ptr %sourceTry.addr.016, i64 48
  %3 = load ptr, ptr %_M_manager.i.i, align 8
  %tobool.not.i.i.not = icmp eq ptr %3, null
  br i1 %tobool.not.i.i.not, label %for.inc, label %if.then14

if.then14:                                        ; preds = %if.end
  %4 = load ptr, ptr %functionContext_.i, align 8
  %surroundingTry = getelementptr inbounds nuw i8, ptr %4, i64 120
  %outer = getelementptr inbounds nuw i8, ptr %sourceTry.addr.016, i64 8
  %5 = load ptr, ptr %surroundingTry, align 8
  %6 = load ptr, ptr %outer, align 8
  store ptr %6, ptr %surroundingTry, align 8
  %node = getelementptr inbounds nuw i8, ptr %sourceTry.addr.016, i64 16
  %7 = load ptr, ptr %node, align 8
  call void @llvm.lifetime.start.p0(i64 8, ptr nonnull %__args.addr.i)
  call void @llvm.lifetime.start.p0(i64 4, ptr nonnull %__args.addr2.i)
  call void @llvm.lifetime.start.p0(i64 8, ptr nonnull %__args.addr4.i)
  store ptr %7, ptr %__args.addr.i, align 8
  store i32 %cfc, ptr %__args.addr2.i, align 4
  store ptr %continueTarget, ptr %__args.addr4.i, align 8
  %8 = load ptr, ptr %_M_manager.i.i, align 8
  %tobool.not.i.i13 = icmp eq ptr %8, null
  br i1 %tobool.not.i.i13, label %if.then.i, label %_ZNKSt8functionIFvPN6hermes6ESTree4NodeENS0_5irgen17ControlFlowChangeEPNS0_10BasicBlockEEEclES3_S5_S7_.exit

if.then.i:                                        ; preds = %if.then14
  call void @_ZSt25__throw_bad_function_callv() #14
  unreachable

_ZNKSt8functionIFvPN6hermes6ESTree4NodeENS0_5irgen17ControlFlowChangeEPNS0_10BasicBlockEEEclES3_S5_S7_.exit: ; preds = %if.then14
  %_M_invoker.i = getelementptr inbounds nuw i8, ptr %sourceTry.addr.016, i64 56
  %9 = load ptr, ptr %_M_invoker.i, align 8
  call void %9(ptr noundef nonnull align 8 dereferenceable(32) %genFinalizer, ptr noundef nonnull align 8 dereferenceable(8) %__args.addr.i, ptr noundef nonnull align 4 dereferenceable(4) %__args.addr2.i, ptr noundef nonnull align 8 dereferenceable(8) %__args.addr4.i) #11
  call void @llvm.lifetime.end.p0(i64 8, ptr nonnull %__args.addr.i)
  call void @llvm.lifetime.end.p0(i64 4, ptr nonnull %__args.addr2.i)
  call void @llvm.lifetime.end.p0(i64 8, ptr nonnull %__args.addr4.i)
  store ptr %5, ptr %surroundingTry, align 8
  br label %for.inc

for.inc:                                          ; preds = %if.end, %_ZNKSt8functionIFvPN6hermes6ESTree4NodeENS0_5irgen17ControlFlowChangeEPNS0_10BasicBlockEEEclES3_S5_S7_.exit
  %outer18 = getelementptr inbounds nuw i8, ptr %sourceTry.addr.016, i64 8
  %10 = load ptr, ptr %outer18, align 8
  %cmp.not = icmp eq ptr %10, %targetTry
  br i1 %cmp.not, label %for.end, label %for.body, !llvm.loop !7

for.end:                                          ; preds = %for.inc, %entry
  ret void
}